#include <math.h>
#include <stdio.h>
#include <stdlib.h>
#include <string.h>

int main()
{	
	int i,j,m,n;
	char str[50][20],str2[50][20];
	scanf("%d",&n);
	for(i=0;i<n;)
	{
		gets(str[i]);
		m=strlen(str[i]);
		if(str[i][m-2]=='e'&&str[i][m-1]=='r'||str[i][m-2]=='l'&&str[i][m-1]=='y')	
		{
			for(j=0;j<m-2;j++)	
			{	
				str2[i][j]=str[i][j];
			}
			str2[i][j]='\0';
			//printf("%d,%s",i,str2[i]);
			i++;
		}
		else if(str[i][m-3]=='i'&&str[i][m-2]=='n'&&str[i][m-1]=='g')
		{
			for(j=0;j<=m-3;j++)
			{	
				if(j<m-3)	str2[i][j]=str[i][j];
				else if(j==m-3)	str2[i][j]='\0';
			}
			str2[i][j]='\0';
			//printf("%d,%s",i,str2[i]);
			i++;
		}
	}
	for(i=0;i<n;i++)
	{	
		printf("%s\n",str2[i]);
	}
	return 0;
}