; ModuleID = '57/2783.c'
source_filename = "57/2783.c"
target datalayout = "e-m:e-p270:32:32-p271:32:32-p272:64:64-i64:64-f80:128-n8:16:32:64-S128"
target triple = "x86_64-pc-linux-gnu"

@.str = private unnamed_addr constant [3 x i8] c"%d\00", align 1
@.str.1 = private unnamed_addr constant [4 x i8] c"%s\0A\00", align 1

; Function Attrs: noinline nounwind uwtable
define dso_local i32 @main() #0 {
  %1 = alloca i32, align 4
  %2 = alloca i32, align 4
  %3 = alloca i32, align 4
  %4 = alloca i32, align 4
  %5 = alloca i32, align 4
  %6 = alloca [50 x [20 x i8]], align 16
  %7 = alloca [50 x [20 x i8]], align 16
  store i32 0, i32* %1, align 4
  %8 = call i32 (i8*, ...) @__isoc99_scanf(i8* getelementptr inbounds ([3 x i8], [3 x i8]* @.str, i64 0, i64 0), i32* %5)
  store i32 0, i32* %2, align 4
  br label %9

9:                                                ; preds = %185, %0
  %10 = load i32, i32* %2, align 4
  %11 = load i32, i32* %5, align 4
  %12 = icmp slt i32 %10, %11
  br i1 %12, label %13, label %186

13:                                               ; preds = %9
  %14 = load i32, i32* %2, align 4
  %15 = sext i32 %14 to i64
  %16 = getelementptr inbounds [50 x [20 x i8]], [50 x [20 x i8]]* %6, i64 0, i64 %15
  %17 = getelementptr inbounds [20 x i8], [20 x i8]* %16, i64 0, i64 0
  %18 = call i32 (i8*, ...) bitcast (i32 (...)* @gets to i32 (i8*, ...)*)(i8* %17)
  %19 = load i32, i32* %2, align 4
  %20 = sext i32 %19 to i64
  %21 = getelementptr inbounds [50 x [20 x i8]], [50 x [20 x i8]]* %6, i64 0, i64 %20
  %22 = getelementptr inbounds [20 x i8], [20 x i8]* %21, i64 0, i64 0
  %23 = call i64 @strlen(i8* %22) #3
  %24 = trunc i64 %23 to i32
  store i32 %24, i32* %4, align 4
  %25 = load i32, i32* %2, align 4
  %26 = sext i32 %25 to i64
  %27 = getelementptr inbounds [50 x [20 x i8]], [50 x [20 x i8]]* %6, i64 0, i64 %26
  %28 = load i32, i32* %4, align 4
  %29 = sub nsw i32 %28, 2
  %30 = sext i32 %29 to i64
  %31 = getelementptr inbounds [20 x i8], [20 x i8]* %27, i64 0, i64 %30
  %32 = load i8, i8* %31, align 1
  %33 = sext i8 %32 to i32
  %34 = icmp eq i32 %33, 101
  br i1 %34, label %35, label %46

35:                                               ; preds = %13
  %36 = load i32, i32* %2, align 4
  %37 = sext i32 %36 to i64
  %38 = getelementptr inbounds [50 x [20 x i8]], [50 x [20 x i8]]* %6, i64 0, i64 %37
  %39 = load i32, i32* %4, align 4
  %40 = sub nsw i32 %39, 1
  %41 = sext i32 %40 to i64
  %42 = getelementptr inbounds [20 x i8], [20 x i8]* %38, i64 0, i64 %41
  %43 = load i8, i8* %42, align 1
  %44 = sext i8 %43 to i32
  %45 = icmp eq i32 %44, 114
  br i1 %45, label %68, label %46

46:                                               ; preds = %35, %13
  %47 = load i32, i32* %2, align 4
  %48 = sext i32 %47 to i64
  %49 = getelementptr inbounds [50 x [20 x i8]], [50 x [20 x i8]]* %6, i64 0, i64 %48
  %50 = load i32, i32* %4, align 4
  %51 = sub nsw i32 %50, 2
  %52 = sext i32 %51 to i64
  %53 = getelementptr inbounds [20 x i8], [20 x i8]* %49, i64 0, i64 %52
  %54 = load i8, i8* %53, align 1
  %55 = sext i8 %54 to i32
  %56 = icmp eq i32 %55, 108
  br i1 %56, label %57, label %100

57:                                               ; preds = %46
  %58 = load i32, i32* %2, align 4
  %59 = sext i32 %58 to i64
  %60 = getelementptr inbounds [50 x [20 x i8]], [50 x [20 x i8]]* %6, i64 0, i64 %59
  %61 = load i32, i32* %4, align 4
  %62 = sub nsw i32 %61, 1
  %63 = sext i32 %62 to i64
  %64 = getelementptr inbounds [20 x i8], [20 x i8]* %60, i64 0, i64 %63
  %65 = load i8, i8* %64, align 1
  %66 = sext i8 %65 to i32
  %67 = icmp eq i32 %66, 121
  br i1 %67, label %68, label %100

68:                                               ; preds = %57, %35
  store i32 0, i32* %3, align 4
  br label %69

69:                                               ; preds = %88, %68
  %70 = load i32, i32* %3, align 4
  %71 = load i32, i32* %4, align 4
  %72 = sub nsw i32 %71, 2
  %73 = icmp slt i32 %70, %72
  br i1 %73, label %74, label %91

74:                                               ; preds = %69
  %75 = load i32, i32* %2, align 4
  %76 = sext i32 %75 to i64
  %77 = getelementptr inbounds [50 x [20 x i8]], [50 x [20 x i8]]* %6, i64 0, i64 %76
  %78 = load i32, i32* %3, align 4
  %79 = sext i32 %78 to i64
  %80 = getelementptr inbounds [20 x i8], [20 x i8]* %77, i64 0, i64 %79
  %81 = load i8, i8* %80, align 1
  %82 = load i32, i32* %2, align 4
  %83 = sext i32 %82 to i64
  %84 = getelementptr inbounds [50 x [20 x i8]], [50 x [20 x i8]]* %7, i64 0, i64 %83
  %85 = load i32, i32* %3, align 4
  %86 = sext i32 %85 to i64
  %87 = getelementptr inbounds [20 x i8], [20 x i8]* %84, i64 0, i64 %86
  store i8 %81, i8* %87, align 1
  br label %88

88:                                               ; preds = %74
  %89 = load i32, i32* %3, align 4
  %90 = add nsw i32 %89, 1
  store i32 %90, i32* %3, align 4
  br label %69

91:                                               ; preds = %69
  %92 = load i32, i32* %2, align 4
  %93 = sext i32 %92 to i64
  %94 = getelementptr inbounds [50 x [20 x i8]], [50 x [20 x i8]]* %7, i64 0, i64 %93
  %95 = load i32, i32* %3, align 4
  %96 = sext i32 %95 to i64
  %97 = getelementptr inbounds [20 x i8], [20 x i8]* %94, i64 0, i64 %96
  store i8 0, i8* %97, align 1
  %98 = load i32, i32* %2, align 4
  %99 = add nsw i32 %98, 1
  store i32 %99, i32* %2, align 4
  br label %185

100:                                              ; preds = %57, %46
  %101 = load i32, i32* %2, align 4
  %102 = sext i32 %101 to i64
  %103 = getelementptr inbounds [50 x [20 x i8]], [50 x [20 x i8]]* %6, i64 0, i64 %102
  %104 = load i32, i32* %4, align 4
  %105 = sub nsw i32 %104, 3
  %106 = sext i32 %105 to i64
  %107 = getelementptr inbounds [20 x i8], [20 x i8]* %103, i64 0, i64 %106
  %108 = load i8, i8* %107, align 1
  %109 = sext i8 %108 to i32
  %110 = icmp eq i32 %109, 105
  br i1 %110, label %111, label %184

111:                                              ; preds = %100
  %112 = load i32, i32* %2, align 4
  %113 = sext i32 %112 to i64
  %114 = getelementptr inbounds [50 x [20 x i8]], [50 x [20 x i8]]* %6, i64 0, i64 %113
  %115 = load i32, i32* %4, align 4
  %116 = sub nsw i32 %115, 2
  %117 = sext i32 %116 to i64
  %118 = getelementptr inbounds [20 x i8], [20 x i8]* %114, i64 0, i64 %117
  %119 = load i8, i8* %118, align 1
  %120 = sext i8 %119 to i32
  %121 = icmp eq i32 %120, 110
  br i1 %121, label %122, label %184

122:                                              ; preds = %111
  %123 = load i32, i32* %2, align 4
  %124 = sext i32 %123 to i64
  %125 = getelementptr inbounds [50 x [20 x i8]], [50 x [20 x i8]]* %6, i64 0, i64 %124
  %126 = load i32, i32* %4, align 4
  %127 = sub nsw i32 %126, 1
  %128 = sext i32 %127 to i64
  %129 = getelementptr inbounds [20 x i8], [20 x i8]* %125, i64 0, i64 %128
  %130 = load i8, i8* %129, align 1
  %131 = sext i8 %130 to i32
  %132 = icmp eq i32 %131, 103
  br i1 %132, label %133, label %184

133:                                              ; preds = %122
  store i32 0, i32* %3, align 4
  br label %134

134:                                              ; preds = %172, %133
  %135 = load i32, i32* %3, align 4
  %136 = load i32, i32* %4, align 4
  %137 = sub nsw i32 %136, 3
  %138 = icmp sle i32 %135, %137
  br i1 %138, label %139, label %175

139:                                              ; preds = %134
  %140 = load i32, i32* %3, align 4
  %141 = load i32, i32* %4, align 4
  %142 = sub nsw i32 %141, 3
  %143 = icmp slt i32 %140, %142
  br i1 %143, label %144, label %158

144:                                              ; preds = %139
  %145 = load i32, i32* %2, align 4
  %146 = sext i32 %145 to i64
  %147 = getelementptr inbounds [50 x [20 x i8]], [50 x [20 x i8]]* %6, i64 0, i64 %146
  %148 = load i32, i32* %3, align 4
  %149 = sext i32 %148 to i64
  %150 = getelementptr inbounds [20 x i8], [20 x i8]* %147, i64 0, i64 %149
  %151 = load i8, i8* %150, align 1
  %152 = load i32, i32* %2, align 4
  %153 = sext i32 %152 to i64
  %154 = getelementptr inbounds [50 x [20 x i8]], [50 x [20 x i8]]* %7, i64 0, i64 %153
  %155 = load i32, i32* %3, align 4
  %156 = sext i32 %155 to i64
  %157 = getelementptr inbounds [20 x i8], [20 x i8]* %154, i64 0, i64 %156
  store i8 %151, i8* %157, align 1
  br label %171

158:                                              ; preds = %139
  %159 = load i32, i32* %3, align 4
  %160 = load i32, i32* %4, align 4
  %161 = sub nsw i32 %160, 3
  %162 = icmp eq i32 %159, %161
  br i1 %162, label %163, label %170

163:                                              ; preds = %158
  %164 = load i32, i32* %2, align 4
  %165 = sext i32 %164 to i64
  %166 = getelementptr inbounds [50 x [20 x i8]], [50 x [20 x i8]]* %7, i64 0, i64 %165
  %167 = load i32, i32* %3, align 4
  %168 = sext i32 %167 to i64
  %169 = getelementptr inbounds [20 x i8], [20 x i8]* %166, i64 0, i64 %168
  store i8 0, i8* %169, align 1
  br label %170

170:                                              ; preds = %163, %158
  br label %171

171:                                              ; preds = %170, %144
  br label %172

172:                                              ; preds = %171
  %173 = load i32, i32* %3, align 4
  %174 = add nsw i32 %173, 1
  store i32 %174, i32* %3, align 4
  br label %134

175:                                              ; preds = %134
  %176 = load i32, i32* %2, align 4
  %177 = sext i32 %176 to i64
  %178 = getelementptr inbounds [50 x [20 x i8]], [50 x [20 x i8]]* %7, i64 0, i64 %177
  %179 = load i32, i32* %3, align 4
  %180 = sext i32 %179 to i64
  %181 = getelementptr inbounds [20 x i8], [20 x i8]* %178, i64 0, i64 %180
  store i8 0, i8* %181, align 1
  %182 = load i32, i32* %2, align 4
  %183 = add nsw i32 %182, 1
  store i32 %183, i32* %2, align 4
  br label %184

184:                                              ; preds = %175, %122, %111, %100
  br label %185

185:                                              ; preds = %184, %91
  br label %9

186:                                              ; preds = %9
  store i32 0, i32* %2, align 4
  br label %187

187:                                              ; preds = %197, %186
  %188 = load i32, i32* %2, align 4
  %189 = load i32, i32* %5, align 4
  %190 = icmp slt i32 %188, %189
  br i1 %190, label %191, label %200

191:                                              ; preds = %187
  %192 = load i32, i32* %2, align 4
  %193 = sext i32 %192 to i64
  %194 = getelementptr inbounds [50 x [20 x i8]], [50 x [20 x i8]]* %7, i64 0, i64 %193
  %195 = getelementptr inbounds [20 x i8], [20 x i8]* %194, i64 0, i64 0
  %196 = call i32 (i8*, ...) @printf(i8* getelementptr inbounds ([4 x i8], [4 x i8]* @.str.1, i64 0, i64 0), i8* %195)
  br label %197

197:                                              ; preds = %191
  %198 = load i32, i32* %2, align 4
  %199 = add nsw i32 %198, 1
  store i32 %199, i32* %2, align 4
  br label %187

200:                                              ; preds = %187
  ret i32 0
}

declare dso_local i32 @__isoc99_scanf(i8*, ...) #1

declare dso_local i32 @gets(...) #1

; Function Attrs: nounwind readonly
declare dso_local i64 @strlen(i8*) #2

declare dso_local i32 @printf(i8*, ...) #1


!llvm.module.flags = !{!0}
!llvm.ident = !{!1}

!0 = !{i32 1, !"wchar_size", i32 4}
!1 = !{!"clang version 10.0.0-4ubuntu1 "}
